; Function Attrs: mustprogress nofree nounwind willreturn memory(write, argmem: readwrite) uwtable
define internal noundef double @_ZL11lmc_exp_expdPKd(double noundef %0, ptr noundef readonly captures(none) %1) #4 {
  %3 = fneg double %0
  %4 = load double, ptr %1, align 8, !tbaa !13
  %5 = tail call double @llvm.fabs.f64(double %4)
  %6 = fdiv double %3, %5
  %7 = fcmp ugt double %6, -2.000000e+02
  br i1 %7, label %8, label %_ZL8safe_expd.exit

8:                                                ; preds = %2
  %9 = fcmp ult double %6, 2.000000e+02
  br i1 %9, label %10, label %_ZL8safe_expd.exit

10:                                               ; preds = %8
  %11 = tail call double @exp(double noundef %6) #18, !tbaa !4
  br label %_ZL8safe_expd.exit

_ZL8safe_expd.exit:                               ; preds = %2, %8, %10
  %.0.i = phi double [ %11, %10 ], [ 0x2DE6061812054CFA, %2 ], [ 0x51F73F60EA79F5B9, %8 ]
  %12 = getelementptr inbounds nuw i8, ptr %1, i64 16
  %13 = load double, ptr %12, align 8, !tbaa !13
  %14 = tail call double @llvm.fabs.f64(double %13)
  %15 = fadd double %5, %14
  %16 = fdiv double %3, %15
  %17 = fcmp ugt double %16, -2.000000e+02
  br i1 %17, label %18, label %_ZL8safe_expd.exit10

18:                                               ; preds = %_ZL8safe_expd.exit
  %19 = fcmp ult double %16, 2.000000e+02
  br i1 %19, label %20, label %_ZL8safe_expd.exit10

20:                                               ; preds = %18
  %21 = tail call double @exp(double noundef %16) #18, !tbaa !4
  br label %_ZL8safe_expd.exit10

_ZL8safe_expd.exit10:                             ; preds = %_ZL8safe_expd.exit, %18, %20
  %.0.i9 = phi double [ %21, %20 ], [ 0x2DE6061812054CFA, %_ZL8safe_expd.exit ], [ 0x51F73F60EA79F5B9, %18 ]
  %22 = getelementptr inbounds nuw i8, ptr %1, i64 8
  %23 = load double, ptr %22, align 8, !tbaa !13
  %24 = fsub double 1.000000e+00, %23
  %25 = fmul double %.0.i9, %24
  %26 = tail call double @llvm.fmuladd.f64(double %23, double %.0.i, double %25)
  ret double %26
}